Microchip MPLAB XC8 Compiler V2.36

Linker command line:

-W-3 --edf=C:\Program Files\Microchip\xc8\v2.36\pic\dat\en_msgs.txt -cn \
  -h+dist/default/production\Sipf_Roaster.X.production.sym \
  --cmf=dist/default/production\Sipf_Roaster.X.production.cmf -z \
  -Q16LF15323 -oC:\Users\istei\AppData\Local\Temp\xcAs7qo.4 \
  --defsym=__MPLAB_BUILD=1 \
  -Mdist/default/production/Sipf_Roaster.X.production.map \
  --md=C:\Users\istei\AppData\Local\Temp\xcAs7qo.dat -E1 -ver=XC8 Compiler \
  --acfsm=1493 -ACODE=00h-07FFh -ASTRCODE=00h-07FFh -ASTRING=00h-0FFhx8 \
  -ACONST=00h-0FFhx8 -AENTRY=00h-0FFhx8 -ACOMMON=070h-07Fh \
  -ABANK0=020h-06Fh -ABANK1=0A0h-0EFh -ABANK2=0120h-016Fh \
  -ABIGRAM=02000h-020EFh -ARAM=020h-06Fh,0A0h-0EFh,0120h-016Fh \
  -AABS1=020h-07Fh,0A0h-0EFh,0120h-016Fh -ASFR0=00h-01Fh -ASFR1=080h-09Fh \
  -ASFR2=0100h-011Fh -ASFR3=0180h-01EFh -ASFR4=0200h-026Fh \
  -ASFR5=0280h-02EFh -ASFR6=0300h-036Fh -ASFR7=0380h-03EFh \
  -ASFR8=0400h-046Fh -ASFR9=0480h-04EFh -ASFR10=0500h-056Fh \
  -ASFR11=0580h-05EFh -ASFR12=0600h-066Fh -ASFR13=0680h-06EFh \
  -ASFR14=0700h-076Fh -ASFR15=0780h-07EFh -ASFR16=0800h-086Fh \
  -ASFR17=0880h-08EFh -ASFR18=0900h-096Fh -ASFR19=0980h-09EFh \
  -ASFR20=0A00h-0A6Fh -ASFR21=0A80h-0AEFh -ASFR22=0B00h-0B6Fh \
  -ASFR23=0B80h-0BEFh -ASFR24=0C00h-0C6Fh -ASFR25=0C80h-0CEFh \
  -ASFR26=0D00h-0D6Fh -ASFR27=0D80h-0DEFh -ASFR28=0E00h-0E6Fh \
  -ASFR29=0E80h-0EEFh -ASFR30=0F00h-0F6Fh -ASFR31=0F80h-0FEFh \
  -ASFR32=01000h-0106Fh -ASFR33=01080h-010EFh -ASFR34=01100h-0116Fh \
  -ASFR35=01180h-011EFh -ASFR36=01200h-0126Fh -ASFR37=01280h-012EFh \
  -ASFR38=01300h-0136Fh -ASFR39=01380h-013EFh -ASFR40=01400h-0146Fh \
  -ASFR41=01480h-014EFh -ASFR42=01500h-0156Fh -ASFR43=01580h-015EFh \
  -ASFR44=01600h-0166Fh -ASFR45=01680h-016EFh -ASFR46=01700h-0176Fh \
  -ASFR47=01780h-017EFh -ASFR48=01800h-0186Fh -ASFR49=01880h-018EFh \
  -ASFR50=01900h-0196Fh -ASFR51=01980h-019EFh -ASFR52=01A00h-01A6Fh \
  -ASFR53=01A80h-01AEFh -ASFR54=01B00h-01B6Fh -ASFR55=01B80h-01BEFh \
  -ASFR56=01C00h-01C6Fh -ASFR57=01C80h-01CEFh -ASFR58=01D00h-01D6Fh \
  -ASFR59=01D80h-01DEFh -ASFR60=01E00h-01E6Fh -ASFR61=01E80h-01EEFh \
  -ASFR62=01F00h-01F6Fh -ASFR63=01F80h-01FEFh -ACONFIG=08007h-0800Bh \
  -DCONFIG=2 -AIDLOC=08000h-08003h -DIDLOC=2 -DCODE=2 -DSTRCODE=2 \
  -DSTRING=2 -DCONST=2 -DENTRY=2 -preset_vec=00h,intentry=04h,init,end_init \
  -ppowerup=CODE -pcinit=CODE -pfunctab=ENTRY -k \
  C:\Users\istei\AppData\Local\Temp\xcAs7qo.o \
  dist/default/production\Sipf_Roaster.X.production.o 

Object code version is 3.11

Machine type is 16LF15323



                Name                               Link     Load   Length Selector   Space Scale
C:\Users\istei\AppData\Local\Temp\xcAs7qo.o
                end_init                             19       19        1        8       0
                reset_vec                             0        0        1        0       0
                config                             8007     8007        5        0       4
                idloc                              8000     8000        4        0       5
dist/default/production\Sipf_Roaster.X.production.o
                cinit                                1A       1A        E        8       0
                intentry                              4        4       15        8       0
                config                             8007     8007        5        0       4
                idloc                              8000     8000        4        0       5
                text48                              60C      60C        6      C0C       0
                text47                              390      390       29      3C8       0
                text46                              58A      58A        C      AE2       0
                text45                              4F7      4F7       16      9EE       0
                text44                              631      631        2      C42       0
                text43                              633      633        1      C42       0
                text42                              62A      62A        4      C42       0
                text41                              2DE      2DE       31      3C8       0
                text39                              3DF      3DF       24      3C8       0
                text38                              554      554        F      9EE       0
                text37                              621      621        5      C42       0
                text36                              50D      50D       14      9EE       0
                text35                              5E3      5E3        8      AE2       0
                text34                              5DB      5DB        8      AE2       0
                text33                              5D3      5D3        8      AE2       0
                text32                              5CB      5CB        8      AE2       0
                text31                              33B      33B       2C      3C8       0
                text30                              626      626        4      C42       0
                text29                              5A0      5A0        A      AE2       0
                text28                              424      424       20      3C8       0
                text27                              5C3      5C3        8      AE2       0
                text26                              5BB      5BB        8      AE2       0
                text25                              57E      57E        C      AE2       0
                text24                              545      545        F      9EE       0
                text23                              596      596        A      AE2       0
                text22                              5B3      5B3        8      AE2       0
                text21                              367      367       29      3C8       0
                text20                              22C      22C       43      3C8       0
                text19                              30F      30F       2C      3C8       0
                text18                              3B9      3B9       26      3C8       0
                text17                              1E4      1E4       48      3C8       0
                text16                              5AA      5AA        9      AE2       0
                text15                              62E      62E        3      C42       0
                text14                              521      521       13      9EE       0
                text13                              571      571        D      AE2       0
                text12                              403      403       21      3C8       0
                text11                              444      444       1F      3C8       0
                text10                               9A       9A       60        8       0
                text9                               498      498       19      930       0
                text8                               4B1      4B1       18      930       0
                text7                                FA       FA       51        8       0
                text6                               463      463       1B      3C8       0
                text5                               26F      26F       3D      3C8       0
                text4                               5F9      5F9        7      BF2       0
                text3                               14B      14B       4E        8       0
                text2                               534      534       11      9EE       0
                text1                               2AC      2AC       32      3C8       0
                maintext                             28       28       72        8       0
                cstackBANK0                          20       20       20       20       1
                cstackCOMMON                         75       75        5       70       1
                cstackBANK1                          A0       A0       1A       A0       1
                clrtext                             606      606        6      C0C       0
                bssBANK0                             40       40       15       20       1
                bssCOMMON                            70       70        5       70       1
                stringtext11                        61C      61C        5      C24       0
                stringtext10                        617      617        5      C24       0
                stringtext9                         612      612        5      C24       0
                stringtext8                         600      600        6      C00       0
                stringtext7                         5F2      5F2        7      BD6       0
                stringtext6                         5EB      5EB        7      BD6       0
                stringtext5                         4E0      4E0       17      992       0
                stringtext4                         4C9      4C9       17      992       0
                stringtext3                         47E      47E       1A      8FC       0
                nvBANK1                              BA       BA        8       A0       1
                nvBANK0                              55       55        5       20       1
                stringtext2                         563      563        E      AC6       0
                stringtext1                         199      199       4B      332       0

TOTAL           Name                               Link     Load   Length     Space
        CLASS   CODE           
                end_init                             19       19        1         0
                cinit                                1A       1A        E         0
                intentry                              4        4       15         0
                reset_vec                             0        0        1         0
                text48                              60C      60C        6         0
                text47                              390      390       29         0
                text46                              58A      58A        C         0
                text45                              4F7      4F7       16         0
                text44                              631      631        2         0
                text43                              633      633        1         0
                text42                              62A      62A        4         0
                text41                              2DE      2DE       31         0
                text39                              3DF      3DF       24         0
                text38                              554      554        F         0
                text37                              621      621        5         0
                text36                              50D      50D       14         0
                text35                              5E3      5E3        8         0
                text34                              5DB      5DB        8         0
                text33                              5D3      5D3        8         0
                text32                              5CB      5CB        8         0
                text31                              33B      33B       2C         0
                text30                              626      626        4         0
                text29                              5A0      5A0        A         0
                text28                              424      424       20         0
                text27                              5C3      5C3        8         0
                text26                              5BB      5BB        8         0
                text25                              57E      57E        C         0
                text24                              545      545        F         0
                text23                              596      596        A         0
                text22                              5B3      5B3        8         0
                text21                              367      367       29         0
                text20                              22C      22C       43         0
                text19                              30F      30F       2C         0
                text18                              3B9      3B9       26         0
                text17                              1E4      1E4       48         0
                text16                              5AA      5AA        9         0
                text15                              62E      62E        3         0
                text14                              521      521       13         0
                text13                              571      571        D         0
                text12                              403      403       21         0
                text11                              444      444       1F         0
                text10                               9A       9A       60         0
                text9                               498      498       19         0
                text8                               4B1      4B1       18         0
                text7                                FA       FA       51         0
                text6                               463      463       1B         0
                text5                               26F      26F       3D         0
                text4                               5F9      5F9        7         0
                text3                               14B      14B       4E         0
                text2                               534      534       11         0
                text1                               2AC      2AC       32         0
                maintext                             28       28       72         0
                clrtext                             606      606        6         0

        CLASS   STRCODE        
                stringtext11                        61C      61C        5         0
                stringtext10                        617      617        5         0
                stringtext9                         612      612        5         0
                stringtext8                         600      600        6         0
                stringtext7                         5F2      5F2        7         0
                stringtext6                         5EB      5EB        7         0
                stringtext5                         4E0      4E0       17         0
                stringtext4                         4C9      4C9       17         0
                stringtext3                         47E      47E       1A         0
                stringtext2                         563      563        E         0
                stringtext1                         199      199       4B         0

        CLASS   STRING         

        CLASS   CONST          

        CLASS   ENTRY          

        CLASS   COMMON         
                cstackCOMMON                         75       75        5         1
                bssCOMMON                            70       70        5         1

        CLASS   BANK0          
                cstackBANK0                          20       20       20         1
                bssBANK0                             40       40       15         1
                nvBANK0                              55       55        5         1

        CLASS   BANK1          
                cstackBANK1                          A0       A0       1A         1
                nvBANK1                              BA       BA        8         1

        CLASS   BANK2          

        CLASS   BIGRAM         

        CLASS   RAM            

        CLASS   ABS1           
                abs_s1                               7E       7E        2         1

        CLASS   SFR0           

        CLASS   SFR1           

        CLASS   SFR2           

        CLASS   SFR3           

        CLASS   SFR4           

        CLASS   SFR5           

        CLASS   SFR6           

        CLASS   SFR7           

        CLASS   SFR8           

        CLASS   SFR9           

        CLASS   SFR10          

        CLASS   SFR11          

        CLASS   SFR12          

        CLASS   SFR13          

        CLASS   SFR14          

        CLASS   SFR15          

        CLASS   SFR16          

        CLASS   SFR17          

        CLASS   SFR18          

        CLASS   SFR19          

        CLASS   SFR20          

        CLASS   SFR21          

        CLASS   SFR22          

        CLASS   SFR23          

        CLASS   SFR24          

        CLASS   SFR25          

        CLASS   SFR26          

        CLASS   SFR27          

        CLASS   SFR28          

        CLASS   SFR29          

        CLASS   SFR30          

        CLASS   SFR31          

        CLASS   SFR32          

        CLASS   SFR33          

        CLASS   SFR34          

        CLASS   SFR35          

        CLASS   SFR36          

        CLASS   SFR37          

        CLASS   SFR38          

        CLASS   SFR39          

        CLASS   SFR40          

        CLASS   SFR41          

        CLASS   SFR42          

        CLASS   SFR43          

        CLASS   SFR44          

        CLASS   SFR45          

        CLASS   SFR46          

        CLASS   SFR47          

        CLASS   SFR48          

        CLASS   SFR49          

        CLASS   SFR50          

        CLASS   SFR51          

        CLASS   SFR52          

        CLASS   SFR53          

        CLASS   SFR54          

        CLASS   SFR55          

        CLASS   SFR56          

        CLASS   SFR57          

        CLASS   SFR58          

        CLASS   SFR59          

        CLASS   SFR60          

        CLASS   SFR61          

        CLASS   SFR62          

        CLASS   SFR63          

        CLASS   CONFIG         
                config                             8007     8007        5         4

        CLASS   IDLOC          
                idloc                              8000     8000        4         5

        CLASS   BANK63         

        CLASS   BANK62         

        CLASS   BANK61         

        CLASS   BANK60         

        CLASS   BANK59         

        CLASS   BANK58         

        CLASS   BANK57         

        CLASS   BANK56         

        CLASS   BANK55         

        CLASS   BANK54         

        CLASS   BANK53         

        CLASS   BANK52         

        CLASS   BANK51         

        CLASS   BANK50         

        CLASS   BANK49         

        CLASS   BANK48         

        CLASS   BANK47         

        CLASS   BANK46         

        CLASS   BANK45         

        CLASS   BANK44         

        CLASS   BANK43         

        CLASS   BANK42         

        CLASS   BANK41         

        CLASS   BANK40         

        CLASS   BANK39         

        CLASS   BANK38         

        CLASS   BANK37         

        CLASS   BANK36         

        CLASS   BANK35         

        CLASS   BANK34         

        CLASS   BANK33         

        CLASS   BANK32         

        CLASS   BANK31         

        CLASS   BANK30         

        CLASS   BANK29         

        CLASS   BANK28         

        CLASS   BANK27         

        CLASS   BANK26         

        CLASS   BANK25         

        CLASS   BANK24         

        CLASS   BANK23         

        CLASS   BANK22         

        CLASS   BANK21         

        CLASS   BANK20         

        CLASS   BANK19         

        CLASS   BANK18         

        CLASS   BANK17         

        CLASS   BANK16         

        CLASS   BANK15         

        CLASS   BANK14         

        CLASS   BANK13         

        CLASS   BANK12         

        CLASS   BANK11         

        CLASS   BANK10         

        CLASS   BANK9          

        CLASS   BANK8          

        CLASS   BANK7          

        CLASS   BANK6          

        CLASS   BANK5          

        CLASS   BANK4          

        CLASS   BANK3          

        CLASS   HEAP           

        CLASS   STACK          

        CLASS   EEDATA         



SEGMENTS        Name                           Load    Length   Top    Selector   Space  Class     Delta

                reset_vec                      000000  000001  000001         0       0  CODE        2
                intentry                       000004  000195  000199         8       0  CODE        2
                cstackBANK0                    000020  00003A  00005A        20       1  BANK0       1
                bssCOMMON                      000070  00000A  00007A        70       1  COMMON      1
                cstackBANK1                    0000A0  000022  0000C2        A0       1  BANK1       1
                stringtext1                    000199  00004B  0001E4       332       0  STRCODE     2
                text17                         0001E4  00029A  00047E       3C8       0  CODE        2
                stringtext3                    00047E  00001A  000498       8FC       0  STRCODE     2
                text9                          000498  000031  0004C9       930       0  CODE        2
                stringtext4                    0004C9  00002E  0004F7       992       0  STRCODE     2
                text45                         0004F7  00006C  000563       9EE       0  CODE        2
                stringtext2                    000563  00000E  000571       AC6       0  STRCODE     2
                text13                         000571  00007A  0005EB       AE2       0  CODE        2
                stringtext6                    0005EB  00000E  0005F9       BD6       0  STRCODE     2
                text4                          0005F9  000007  000600       BF2       0  CODE        2
                stringtext8                    000600  000006  000606       C00       0  STRCODE     2
                clrtext                        000606  00000C  000612       C0C       0  CODE        2
                stringtext9                    000612  00000F  000621       C24       0  STRCODE     2
                text37                         000621  000013  000634       C42       0  CODE        2


UNUSED ADDRESS RANGES

        Name                Unused          Largest block    Delta
        BANK0            0005A-0006F              16           1
        BANK1            000C2-000EF              2E           1
        BANK2            00120-0016F              50           1
        BIGRAM           02000-020EF              F0           1
        CODE             00001-00003               3           2
                         00634-007FF             1CC
        COMMON           0007A-0007D               4           1
        CONST            00001-00003               3           2
                         00634-007FF              CC
        ENTRY            00001-00003               3           2
                         00634-007FF              CC
        RAM              0005A-0006F              16           1
                         000C2-000EF              2E
                         00120-0016F              50
        SFR0             00000-0001F              20           1
        SFR1             00080-0009F              20           1
        SFR10            00500-0056F              70           1
        SFR11            00580-005EF              70           1
        SFR12            00600-0066F              70           1
        SFR13            00680-006EF              70           1
        SFR14            00700-0076F              70           1
        SFR15            00780-007EF              70           1
        SFR16            00800-0086F              70           1
        SFR17            00880-008EF              70           1
        SFR18            00900-0096F              70           1
        SFR19            00980-009EF              70           1
        SFR2             00100-0011F              20           1
        SFR20            00A00-00A6F              70           1
        SFR21            00A80-00AEF              70           1
        SFR22            00B00-00B6F              70           1
        SFR23            00B80-00BEF              70           1
        SFR24            00C00-00C6F              70           1
        SFR25            00C80-00CEF              70           1
        SFR26            00D00-00D6F              70           1
        SFR27            00D80-00DEF              70           1
        SFR28            00E00-00E6F              70           1
        SFR29            00E80-00EEF              70           1
        SFR3             00180-001EF              70           1
        SFR30            00F00-00F6F              70           1
        SFR31            00F80-00FEF              70           1
        SFR32            01000-0106F              70           1
        SFR33            01080-010EF              70           1
        SFR34            01100-0116F              70           1
        SFR35            01180-011EF              70           1
        SFR36            01200-0126F              70           1
        SFR37            01280-012EF              70           1
        SFR38            01300-0136F              70           1
        SFR39            01380-013EF              70           1
        SFR4             00200-0026F              70           1
        SFR40            01400-0146F              70           1
        SFR41            01480-014EF              70           1
        SFR42            01500-0156F              70           1
        SFR43            01580-015EF              70           1
        SFR44            01600-0166F              70           1
        SFR45            01680-016EF              70           1
        SFR46            01700-0176F              70           1
        SFR47            01780-017EF              70           1
        SFR48            01800-0186F              70           1
        SFR49            01880-018EF              70           1
        SFR5             00280-002EF              70           1
        SFR50            01900-0196F              70           1
        SFR51            01980-019EF              70           1
        SFR52            01A00-01A6F              70           1
        SFR53            01A80-01AEF              70           1
        SFR54            01B00-01B6F              70           1
        SFR55            01B80-01BEF              70           1
        SFR56            01C00-01C6F              70           1
        SFR57            01C80-01CEF              70           1
        SFR58            01D00-01D6F              70           1
        SFR59            01D80-01DEF              70           1
        SFR6             00300-0036F              70           1
        SFR60            01E00-01E6F              70           1
        SFR61            01E80-01EEF              70           1
        SFR62            01F00-01F6F              70           1
        SFR63            01F80-01FEF              70           1
        SFR7             00380-003EF              70           1
        SFR8             00400-0046F              70           1
        SFR9             00480-004EF              70           1
        STRCODE          00001-00003               3           2
                         00634-007FF             1CC
        STRING           00001-00003               3           2
                         00634-007FF              CC

                                  Symbol Table

?_ADC_GetConversionResult                       cstackCOMMON 00075
?___awdiv                                       cstackBANK0  00026
?___wmul                                        cstackBANK0  00020
ADC_DefaultInterruptHandler@result              cstackCOMMON 00078
ADC_SelectChannel@channel                       cstackBANK0  00021
ADC_SetInterruptHandler@InterruptHandler        cstackBANK0  00020
EUSART1_Read@readValue                          cstackBANK0  00021
EUSART1_SetErrorHandler@interruptHandler        cstackBANK0  00020
EUSART1_SetFramingErrorHandler@interruptHandler cstackBANK0  00020
EUSART1_SetOverrunErrorHandler@interruptHandler cstackBANK0  00020
EUSART1_SetRxInterruptHandler@interruptHandler  cstackBANK0  00020
EUSART1_Write@txData                            cstackBANK0  00020
PWM3_LoadDutyValue@dutyValue                    cstackBANK0  00020
_ADACT                                          (abs)        0009F
_ADCON0                                         (abs)        0009D
_ADCON0bits                                     (abs)        0009D
_ADCON1                                         (abs)        0009E
_ADC_DefaultInterruptHandler                    text47       00390
_ADC_GetConversionResult                        text48       0060C
_ADC_ISR                                        text46       0058A
_ADC_Initialize                                 text36       0050D
_ADC_InterruptHandler                           nvBANK0      00058
_ADC_SelectChannel                              text38       00554
_ADC_SetInterruptHandler                        text37       00621
_ADRESH                                         (abs)        0009C
_ADRESL                                         (abs)        0009B
_ANSELA                                         (abs)        01F38
_ANSELC                                         (abs)        01F4E
_BAUD1CON                                       (abs)        0011F
_EUSART1_DefaultErrorHandler                    text44       00631
_EUSART1_DefaultFramingErrorHandler             text43       00633
_EUSART1_DefaultOverrunErrorHandler             text42       0062A
_EUSART1_ErrorHandler                           nvBANK1      000BA
_EUSART1_FramingErrorHandler                    nvBANK1      000BE
_EUSART1_Initialize                             text31       0033B
_EUSART1_OverrunErrorHandler                    nvBANK1      000BC
_EUSART1_Read                                   text39       003DF
_EUSART1_Receive_ISR                            text41       002DE
_EUSART1_RxDataHandler                          text45       004F7
_EUSART1_RxDefaultInterruptHandler              nvBANK1      000C0
_EUSART1_SetErrorHandler                        text35       005E3
_EUSART1_SetFramingErrorHandler                 text34       005DB
_EUSART1_SetOverrunErrorHandler                 text33       005D3
_EUSART1_SetRxInterruptHandler                  text32       005CB
_EUSART1_Write                                  text16       005AA
_FVRCON                                         (abs)        0090C
_FVR_Initialize                                 text30       00626
_INLVLA                                         (abs)        01F3C
_INLVLC                                         (abs)        01F52
_INTCONbits                                     (abs)        0000B
_INTERRUPT_InterruptManager                     intentry     00004
_LATA                                           (abs)        00018
_LATAbits                                       (abs)        00018
_LATC                                           (abs)        0001A
_ODCONA                                         (abs)        01F3A
_ODCONC                                         (abs)        01F50
_OSCCON1                                        (abs)        0088D
_OSCCON3                                        (abs)        0088F
_OSCEN                                          (abs)        00891
_OSCFRQ                                         (abs)        00893
_OSCILLATOR_Initialize                          text29       005A0
_OSCSTAT                                        (abs)        00890
_OSCTUNE                                        (abs)        00892
_PIE1bits                                       (abs)        00717
_PIE3bits                                       (abs)        00719
_PIN_MANAGER_Initialize                         text28       00424
_PIR0bits                                       (abs)        0070C
_PIR1bits                                       (abs)        0070D
_PIR3bits                                       (abs)        0070F
_PIR4bits                                       (abs)        00710
_PMD0                                           (abs)        00796
_PMD1                                           (abs)        00797
_PMD2                                           (abs)        00798
_PMD3                                           (abs)        00799
_PMD4                                           (abs)        0079A
_PMD5                                           (abs)        0079B
_PMD_Initialize                                 text27       005C3
_PWM3CON                                        (abs)        00316
_PWM3DCH                                        (abs)        00315
_PWM3DCL                                        (abs)        00314
_PWM3_Initialize                                text26       005BB
_PWM3_LoadDutyValue                             text8        004B1
_RC1REG                                         (abs)        00119
_RC1STA                                         (abs)        0011D
_RC1STAbits                                     (abs)        0011D
_RC2PPS                                         (abs)        01F22
_RC4PPS                                         (abs)        01F24
_RX1DTPPS                                       (abs)        01ECB
_SLRCONA                                        (abs)        01F3B
_SLRCONC                                        (abs)        01F51
_SP1BRGH                                        (abs)        0011C
_SP1BRGL                                        (abs)        0011B
_SYSTEM_Initialize                              text23       00596
_T0CON0                                         (abs)        0059E
_T0CON1                                         (abs)        0059F
_T2CLKCON                                       (abs)        00290
_T2CON                                          (abs)        0028E
_T2HLT                                          (abs)        0028F
_T2PR                                           (abs)        0028D
_T2RST                                          (abs)        00291
_T2TMR                                          (abs)        0028C
_TMR0H                                          (abs)        0059D
_TMR0L                                          (abs)        0059C
_TMR0_Initialize                                text25       0057E
_TMR2_Initialize                                text24       00545
_TRISA                                          (abs)        00012
_TRISC                                          (abs)        00014
_TX1REG                                         (abs)        0011A
_TX1STA                                         (abs)        0011E
_WPUA                                           (abs)        01F39
_WPUC                                           (abs)        01F4F
__Habs1                                         abs1         00000
__Hbank0                                        bank0        00000
__Hbank1                                        bank1        00000
__Hbank10                                       bank10       00000
__Hbank11                                       bank11       00000
__Hbank12                                       bank12       00000
__Hbank13                                       bank13       00000
__Hbank14                                       bank14       00000
__Hbank15                                       bank15       00000
__Hbank16                                       bank16       00000
__Hbank17                                       bank17       00000
__Hbank18                                       bank18       00000
__Hbank19                                       bank19       00000
__Hbank2                                        bank2        00000
__Hbank20                                       bank20       00000
__Hbank21                                       bank21       00000
__Hbank22                                       bank22       00000
__Hbank23                                       bank23       00000
__Hbank24                                       bank24       00000
__Hbank25                                       bank25       00000
__Hbank26                                       bank26       00000
__Hbank27                                       bank27       00000
__Hbank28                                       bank28       00000
__Hbank29                                       bank29       00000
__Hbank3                                        bank3        00000
__Hbank30                                       bank30       00000
__Hbank31                                       bank31       00000
__Hbank32                                       bank32       00000
__Hbank33                                       bank33       00000
__Hbank34                                       bank34       00000
__Hbank35                                       bank35       00000
__Hbank36                                       bank36       00000
__Hbank37                                       bank37       00000
__Hbank38                                       bank38       00000
__Hbank39                                       bank39       00000
__Hbank4                                        bank4        00000
__Hbank40                                       bank40       00000
__Hbank41                                       bank41       00000
__Hbank42                                       bank42       00000
__Hbank43                                       bank43       00000
__Hbank44                                       bank44       00000
__Hbank45                                       bank45       00000
__Hbank46                                       bank46       00000
__Hbank47                                       bank47       00000
__Hbank48                                       bank48       00000
__Hbank49                                       bank49       00000
__Hbank5                                        bank5        00000
__Hbank50                                       bank50       00000
__Hbank51                                       bank51       00000
__Hbank52                                       bank52       00000
__Hbank53                                       bank53       00000
__Hbank54                                       bank54       00000
__Hbank55                                       bank55       00000
__Hbank56                                       bank56       00000
__Hbank57                                       bank57       00000
__Hbank58                                       bank58       00000
__Hbank59                                       bank59       00000
__Hbank6                                        bank6        00000
__Hbank60                                       bank60       00000
__Hbank61                                       bank61       00000
__Hbank62                                       bank62       00000
__Hbank63                                       bank63       00000
__Hbank7                                        bank7        00000
__Hbank8                                        bank8        00000
__Hbank9                                        bank9        00000
__Hbigram                                       bigram       00000
__HbssBANK0                                     bssBANK0     00000
__HbssCOMMON                                    bssCOMMON    00000
__Hcinit                                        cinit        00028
__Hclrtext                                      clrtext      00000
__Hcode                                         code         00000
__Hcommon                                       common       00000
__Hconfig                                       config       0800C
__HcstackBANK0                                  cstackBANK0  00000
__HcstackBANK1                                  cstackBANK1  00000
__HcstackCOMMON                                 cstackCOMMON 00000
__Heeprom_data                                  eeprom_data  00000
__Hend_init                                     end_init     0001A
__Hfunctab                                      functab      00000
__Hheap                                         heap         00000
__Hidloc                                        idloc        08004
__Hinit                                         init         00019
__Hintentry                                     intentry     00019
__Hmaintext                                     maintext     00000
__HnvBANK0                                      nvBANK0      00000
__HnvBANK1                                      nvBANK1      00000
__Hpowerup                                      powerup      00000
__Hram                                          ram          00000
__Hreset_vec                                    reset_vec    00001
__Hsfr0                                         sfr0         00000
__Hsfr1                                         sfr1         00000
__Hsfr10                                        sfr10        00000
__Hsfr11                                        sfr11        00000
__Hsfr12                                        sfr12        00000
__Hsfr13                                        sfr13        00000
__Hsfr14                                        sfr14        00000
__Hsfr15                                        sfr15        00000
__Hsfr16                                        sfr16        00000
__Hsfr17                                        sfr17        00000
__Hsfr18                                        sfr18        00000
__Hsfr19                                        sfr19        00000
__Hsfr2                                         sfr2         00000
__Hsfr20                                        sfr20        00000
__Hsfr21                                        sfr21        00000
__Hsfr22                                        sfr22        00000
__Hsfr23                                        sfr23        00000
__Hsfr24                                        sfr24        00000
__Hsfr25                                        sfr25        00000
__Hsfr26                                        sfr26        00000
__Hsfr27                                        sfr27        00000
__Hsfr28                                        sfr28        00000
__Hsfr29                                        sfr29        00000
__Hsfr3                                         sfr3         00000
__Hsfr30                                        sfr30        00000
__Hsfr31                                        sfr31        00000
__Hsfr32                                        sfr32        00000
__Hsfr33                                        sfr33        00000
__Hsfr34                                        sfr34        00000
__Hsfr35                                        sfr35        00000
__Hsfr36                                        sfr36        00000
__Hsfr37                                        sfr37        00000
__Hsfr38                                        sfr38        00000
__Hsfr39                                        sfr39        00000
__Hsfr4                                         sfr4         00000
__Hsfr40                                        sfr40        00000
__Hsfr41                                        sfr41        00000
__Hsfr42                                        sfr42        00000
__Hsfr43                                        sfr43        00000
__Hsfr44                                        sfr44        00000
__Hsfr45                                        sfr45        00000
__Hsfr46                                        sfr46        00000
__Hsfr47                                        sfr47        00000
__Hsfr48                                        sfr48        00000
__Hsfr49                                        sfr49        00000
__Hsfr5                                         sfr5         00000
__Hsfr50                                        sfr50        00000
__Hsfr51                                        sfr51        00000
__Hsfr52                                        sfr52        00000
__Hsfr53                                        sfr53        00000
__Hsfr54                                        sfr54        00000
__Hsfr55                                        sfr55        00000
__Hsfr56                                        sfr56        00000
__Hsfr57                                        sfr57        00000
__Hsfr58                                        sfr58        00000
__Hsfr59                                        sfr59        00000
__Hsfr6                                         sfr6         00000
__Hsfr60                                        sfr60        00000
__Hsfr61                                        sfr61        00000
__Hsfr62                                        sfr62        00000
__Hsfr63                                        sfr63        00000
__Hsfr7                                         sfr7         00000
__Hsfr8                                         sfr8         00000
__Hsfr9                                         sfr9         00000
__Hspace_0                                      (abs)        00634
__Hspace_1                                      (abs)        000C2
__Hspace_2                                      (abs)        00000
__Hspace_3                                      (abs)        00000
__Hspace_4                                      (abs)        10013
__Hstack                                        stack        00000
__Hstrings                                      strings      00000
__Hstringtext1                                  stringtext1  00000
__Hstringtext10                                 stringtext10 00000
__Hstringtext11                                 stringtext11 00000
__Hstringtext12                                 stringtext12 00000
__Hstringtext2                                  stringtext2  00000
__Hstringtext3                                  stringtext3  00000
__Hstringtext4                                  stringtext4  00000
__Hstringtext5                                  stringtext5  00000
__Hstringtext6                                  stringtext6  00000
__Hstringtext7                                  stringtext7  00000
__Hstringtext8                                  stringtext8  00000
__Hstringtext9                                  stringtext9  00000
__Htext                                         text         00000
__Labs1                                         abs1         00000
__Lbank0                                        bank0        00000
__Lbank1                                        bank1        00000
__Lbank10                                       bank10       00000
__Lbank11                                       bank11       00000
__Lbank12                                       bank12       00000
__Lbank13                                       bank13       00000
__Lbank14                                       bank14       00000
__Lbank15                                       bank15       00000
__Lbank16                                       bank16       00000
__Lbank17                                       bank17       00000
__Lbank18                                       bank18       00000
__Lbank19                                       bank19       00000
__Lbank2                                        bank2        00000
__Lbank20                                       bank20       00000
__Lbank21                                       bank21       00000
__Lbank22                                       bank22       00000
__Lbank23                                       bank23       00000
__Lbank24                                       bank24       00000
__Lbank25                                       bank25       00000
__Lbank26                                       bank26       00000
__Lbank27                                       bank27       00000
__Lbank28                                       bank28       00000
__Lbank29                                       bank29       00000
__Lbank3                                        bank3        00000
__Lbank30                                       bank30       00000
__Lbank31                                       bank31       00000
__Lbank32                                       bank32       00000
__Lbank33                                       bank33       00000
__Lbank34                                       bank34       00000
__Lbank35                                       bank35       00000
__Lbank36                                       bank36       00000
__Lbank37                                       bank37       00000
__Lbank38                                       bank38       00000
__Lbank39                                       bank39       00000
__Lbank4                                        bank4        00000
__Lbank40                                       bank40       00000
__Lbank41                                       bank41       00000
__Lbank42                                       bank42       00000
__Lbank43                                       bank43       00000
__Lbank44                                       bank44       00000
__Lbank45                                       bank45       00000
__Lbank46                                       bank46       00000
__Lbank47                                       bank47       00000
__Lbank48                                       bank48       00000
__Lbank49                                       bank49       00000
__Lbank5                                        bank5        00000
__Lbank50                                       bank50       00000
__Lbank51                                       bank51       00000
__Lbank52                                       bank52       00000
__Lbank53                                       bank53       00000
__Lbank54                                       bank54       00000
__Lbank55                                       bank55       00000
__Lbank56                                       bank56       00000
__Lbank57                                       bank57       00000
__Lbank58                                       bank58       00000
__Lbank59                                       bank59       00000
__Lbank6                                        bank6        00000
__Lbank60                                       bank60       00000
__Lbank61                                       bank61       00000
__Lbank62                                       bank62       00000
__Lbank63                                       bank63       00000
__Lbank7                                        bank7        00000
__Lbank8                                        bank8        00000
__Lbank9                                        bank9        00000
__Lbigram                                       bigram       00000
__LbssBANK0                                     bssBANK0     00000
__LbssCOMMON                                    bssCOMMON    00000
__Lcinit                                        cinit        0001A
__Lclrtext                                      clrtext      00000
__Lcode                                         code         00000
__Lcommon                                       common       00000
__Lconfig                                       config       00000
__LcstackBANK0                                  cstackBANK0  00000
__LcstackBANK1                                  cstackBANK1  00000
__LcstackCOMMON                                 cstackCOMMON 00000
__Leeprom_data                                  eeprom_data  00000
__Lend_init                                     end_init     00019
__Lfunctab                                      functab      00000
__Lheap                                         heap         00000
__Lidloc                                        idloc        00000
__Linit                                         init         00019
__Lintentry                                     intentry     00004
__Lmaintext                                     maintext     00000
__LnvBANK0                                      nvBANK0      00000
__LnvBANK1                                      nvBANK1      00000
__Lpowerup                                      powerup      00000
__Lram                                          ram          00000
__Lreset_vec                                    reset_vec    00000
__Lsfr0                                         sfr0         00000
__Lsfr1                                         sfr1         00000
__Lsfr10                                        sfr10        00000
__Lsfr11                                        sfr11        00000
__Lsfr12                                        sfr12        00000
__Lsfr13                                        sfr13        00000
__Lsfr14                                        sfr14        00000
__Lsfr15                                        sfr15        00000
__Lsfr16                                        sfr16        00000
__Lsfr17                                        sfr17        00000
__Lsfr18                                        sfr18        00000
__Lsfr19                                        sfr19        00000
__Lsfr2                                         sfr2         00000
__Lsfr20                                        sfr20        00000
__Lsfr21                                        sfr21        00000
__Lsfr22                                        sfr22        00000
__Lsfr23                                        sfr23        00000
__Lsfr24                                        sfr24        00000
__Lsfr25                                        sfr25        00000
__Lsfr26                                        sfr26        00000
__Lsfr27                                        sfr27        00000
__Lsfr28                                        sfr28        00000
__Lsfr29                                        sfr29        00000
__Lsfr3                                         sfr3         00000
__Lsfr30                                        sfr30        00000
__Lsfr31                                        sfr31        00000
__Lsfr32                                        sfr32        00000
__Lsfr33                                        sfr33        00000
__Lsfr34                                        sfr34        00000
__Lsfr35                                        sfr35        00000
__Lsfr36                                        sfr36        00000
__Lsfr37                                        sfr37        00000
__Lsfr38                                        sfr38        00000
__Lsfr39                                        sfr39        00000
__Lsfr4                                         sfr4         00000
__Lsfr40                                        sfr40        00000
__Lsfr41                                        sfr41        00000
__Lsfr42                                        sfr42        00000
__Lsfr43                                        sfr43        00000
__Lsfr44                                        sfr44        00000
__Lsfr45                                        sfr45        00000
__Lsfr46                                        sfr46        00000
__Lsfr47                                        sfr47        00000
__Lsfr48                                        sfr48        00000
__Lsfr49                                        sfr49        00000
__Lsfr5                                         sfr5         00000
__Lsfr50                                        sfr50        00000
__Lsfr51                                        sfr51        00000
__Lsfr52                                        sfr52        00000
__Lsfr53                                        sfr53        00000
__Lsfr54                                        sfr54        00000
__Lsfr55                                        sfr55        00000
__Lsfr56                                        sfr56        00000
__Lsfr57                                        sfr57        00000
__Lsfr58                                        sfr58        00000
__Lsfr59                                        sfr59        00000
__Lsfr6                                         sfr6         00000
__Lsfr60                                        sfr60        00000
__Lsfr61                                        sfr61        00000
__Lsfr62                                        sfr62        00000
__Lsfr63                                        sfr63        00000
__Lsfr7                                         sfr7         00000
__Lsfr8                                         sfr8         00000
__Lsfr9                                         sfr9         00000
__Lspace_0                                      (abs)        00000
__Lspace_1                                      (abs)        00000
__Lspace_2                                      (abs)        00000
__Lspace_3                                      (abs)        00000
__Lspace_4                                      (abs)        00000
__Lstack                                        stack        00000
__Lstrings                                      strings      00000
__Lstringtext1                                  stringtext1  00000
__Lstringtext10                                 stringtext10 00000
__Lstringtext11                                 stringtext11 00000
__Lstringtext12                                 stringtext12 00000
__Lstringtext2                                  stringtext2  00000
__Lstringtext3                                  stringtext3  00000
__Lstringtext4                                  stringtext4  00000
__Lstringtext5                                  stringtext5  00000
__Lstringtext6                                  stringtext6  00000
__Lstringtext7                                  stringtext7  00000
__Lstringtext8                                  stringtext8  00000
__Lstringtext9                                  stringtext9  00000
__Ltext                                         text         00000
__S0                                            (abs)        00634
__S1                                            (abs)        000C2
___awdiv                                        text7        000FA
___awdiv@counter                                cstackBANK0  0002B
___awdiv@dividend                               cstackBANK0  00028
___awdiv@divisor                                cstackBANK0  00026
___awdiv@quotient                               cstackBANK0  0002D
___awdiv@sign                                   cstackBANK0  0002C
___bmul                                         text2        00534
___bmul@multiplicand                            cstackBANK0  00020
___bmul@multiplier                              cstackBANK0  00023
___bmul@product                                 cstackBANK0  00022
___heap_hi                                      (abs)        00000
___heap_lo                                      (abs)        00000
___int_sp                                       stack        00000
___latbits                                      (abs)        00000
___lbdiv                                        text12       00403
___lbdiv@counter                                cstackBANK0  00023
___lbdiv@dividend                               cstackBANK0  00022
___lbdiv@divisor                                cstackBANK0  00020
___lbdiv@quotient                               cstackBANK0  00024
___lbmod                                        text11       00444
___lbmod@counter                                cstackBANK0  00029
___lbmod@dividend                               cstackBANK0  00028
___lbmod@divisor                                cstackBANK0  00025
___lbmod@rem                                    cstackBANK0  0002A
___sp                                           stack        00000
___stackhi                                      (abs)        00000
___stacklo                                      (abs)        00000
___wmul                                         text6        00463
___wmul@multiplicand                            cstackBANK0  00022
___wmul@multiplier                              cstackBANK0  00020
___wmul@product                                 cstackBANK0  00024
__end_of_ADC_DefaultInterruptHandler            text47       003B9
__end_of_ADC_GetConversionResult                text48       00612
__end_of_ADC_ISR                                text46       00596
__end_of_ADC_Initialize                         text36       00521
__end_of_ADC_SelectChannel                      text38       00563
__end_of_ADC_SetInterruptHandler                text37       00626
__end_of_EUSART1_DefaultErrorHandler            text44       00633
__end_of_EUSART1_DefaultFramingErrorHandler     text43       00634
__end_of_EUSART1_DefaultOverrunErrorHandler     text42       0062E
__end_of_EUSART1_Initialize                     text31       00367
__end_of_EUSART1_Read                           text39       00403
__end_of_EUSART1_Receive_ISR                    text41       0030F
__end_of_EUSART1_RxDataHandler                  text45       0050D
__end_of_EUSART1_SetErrorHandler                text35       005EB
__end_of_EUSART1_SetFramingErrorHandler         text34       005E3
__end_of_EUSART1_SetOverrunErrorHandler         text33       005DB
__end_of_EUSART1_SetRxInterruptHandler          text32       005D3
__end_of_EUSART1_Write                          text16       005B3
__end_of_FVR_Initialize                         text30       0062A
__end_of_INTERRUPT_InterruptManager             intentry     00019
__end_of_OSCILLATOR_Initialize                  text29       005AA
__end_of_PIN_MANAGER_Initialize                 text28       00444
__end_of_PMD_Initialize                         text27       005CB
__end_of_PWM3_Initialize                        text26       005C3
__end_of_PWM3_LoadDutyValue                     text8        004C9
__end_of_SYSTEM_Initialize                      text23       005A0
__end_of_TMR0_Initialize                        text25       0058A
__end_of_TMR2_Initialize                        text24       00554
__end_of___awdiv                                text7        0014B
__end_of___bmul                                 text2        00545
__end_of___lbdiv                                text12       00424
__end_of___lbmod                                text11       00463
__end_of___wmul                                 text6        0047E
__end_of__initialization                        cinit        00025
__end_of_convert2Celsius                        text22       005BB
__end_of_getBeanTemperature                     text21       00390
__end_of_getCommandAndParams                    text17       0022C
__end_of_getParams                              text20       0026F
__end_of_int2string                             text10       000FA
__end_of_isEqual                                text19       0033B
__end_of_main                                   maintext     0009A
__end_of_powerBitTable                          stringtext1  001E4
__end_of_pwmLevel                               stringtext2  00571
__end_of_sendChannelsReply                      text13       0057E
__end_of_sendLf2Serial                          text15       00631
__end_of_sendString2Serial                      text14       00534
__end_of_sendTemperature                        text9        004B1
__end_of_setDcFanSpeed                          text5        002AC
__end_of_setHeaterPower                         text3        00199
__end_of_setPowerBits                           text4        00600
__end_of_startsWith                             text18       003DF
__end_of_string2int                             text1        002DE
__initialization                                cinit        0001A
__pbssBANK0                                     bssBANK0     00040
__pbssCOMMON                                    bssCOMMON    00070
__pcstackBANK0                                  cstackBANK0  00020
__pcstackBANK1                                  cstackBANK1  000A0
__pcstackCOMMON                                 cstackCOMMON 00075
__pintentry                                     intentry     00004
__pmaintext                                     maintext     00028
__pnvBANK0                                      nvBANK0      00055
__pnvBANK1                                      nvBANK1      000BA
__pstringtext1                                  stringtext1  00199
__pstringtext10                                 stringtext10 00617
__pstringtext11                                 stringtext11 0061C
__pstringtext12                                 stringtext12 00000
__pstringtext2                                  stringtext2  00563
__pstringtext3                                  stringtext3  0047E
__pstringtext4                                  stringtext4  004C9
__pstringtext5                                  stringtext5  004E0
__pstringtext6                                  stringtext6  005EB
__pstringtext7                                  stringtext7  005F2
__pstringtext8                                  stringtext8  00600
__pstringtext9                                  stringtext9  00612
__ptext1                                        text1        002AC
__ptext10                                       text10       0009A
__ptext11                                       text11       00444
__ptext12                                       text12       00403
__ptext13                                       text13       00571
__ptext14                                       text14       00521
__ptext15                                       text15       0062E
__ptext16                                       text16       005AA
__ptext17                                       text17       001E4
__ptext18                                       text18       003B9
__ptext19                                       text19       0030F
__ptext2                                        text2        00534
__ptext20                                       text20       0022C
__ptext21                                       text21       00367
__ptext22                                       text22       005B3
__ptext23                                       text23       00596
__ptext24                                       text24       00545
__ptext25                                       text25       0057E
__ptext26                                       text26       005BB
__ptext27                                       text27       005C3
__ptext28                                       text28       00424
__ptext29                                       text29       005A0
__ptext3                                        text3        0014B
__ptext30                                       text30       00626
__ptext31                                       text31       0033B
__ptext32                                       text32       005CB
__ptext33                                       text33       005D3
__ptext34                                       text34       005DB
__ptext35                                       text35       005E3
__ptext36                                       text36       0050D
__ptext37                                       text37       00621
__ptext38                                       text38       00554
__ptext39                                       text39       003DF
__ptext4                                        text4        005F9
__ptext41                                       text41       002DE
__ptext42                                       text42       0062A
__ptext43                                       text43       00633
__ptext44                                       text44       00631
__ptext45                                       text45       004F7
__ptext46                                       text46       0058A
__ptext47                                       text47       00390
__ptext48                                       text48       0060C
__ptext5                                        text5        0026F
__ptext6                                        text6        00463
__ptext7                                        text7        000FA
__ptext8                                        text8        004B1
__ptext9                                        text9        00498
_convert2Celsius                                text22       005B3
_eusart1RxBuffer                                bssBANK0     00048
_eusart1RxCount                                 bssCOMMON    00072
_eusart1RxHead                                  bssCOMMON    00074
_eusart1RxLastError                             bssBANK0     00054
_eusart1RxStatusBuffer                          bssBANK0     00040
_eusart1RxTail                                  bssCOMMON    00073
_getBeanTemperature                             text21       00367
_getCommandAndParams                            text17       001E4
_getParams                                      text20       0022C
_int2string                                     text10       0009A
_isEqual                                        text19       0030F
_main                                           maintext     00028
_periodCounter                                  bssCOMMON    00071
_powerBitTable                                  stringtext1  00199
_powerBits                                      nvBANK0      00055
_pwmLevel                                       stringtext2  00563
_sendChannelsReply                              text13       00571
_sendLf2Serial                                  text15       0062E
_sendString2Serial                              text14       00521
_sendTemperature                                text9        00498
_setDcFanSpeed                                  text5        0026F
_setHeaterPower                                 text3        0014B
_setPowerBits                                   text4        005F9
_startsWith                                     text18       003B9
_string2int                                     text1        002AC
_tempBuffer                                     bssBANK0     00050
_tempBufferIndex                                bssCOMMON    00070
btemp                                           (abs)        0007E
clear_ram0                                      clrtext      00606
convert2Celsius@avg_result                      cstackBANK0  00020
end_of_initialization                           cinit        00025
getBeanTemperature@i                            cstackBANK0  00029
getBeanTemperature@result                       cstackBANK0  00027
getCommandAndParams@lengthOfParams              cstackBANK0  00027
getCommandAndParams@params                      cstackBANK0  00024
getCommandAndParams@readLine                    cstackBANK0  00028
getParams@length                                cstackBANK0  00022
getParams@params                                cstackBANK0  00020
getParams@readLine                              cstackBANK0  00023
int$flags                                       (abs)        0007E
int2string@hundreds                             cstackBANK0  0002F
int2string@index                                cstackBANK0  00032
int2string@number                               cstackBANK0  00030
int2string@numberStr                            cstackBANK0  0002B
int2string@tenths                               cstackBANK0  00031
intlevel0                                       functab      00000
intlevel1                                       functab      00000
intlevel2                                       functab      00000
intlevel3                                       functab      00000
intlevel4                                       functab      00000
intlevel5                                       functab      00000
isEqual@str1                                    cstackBANK0  00020
isEqual@str2                                    cstackBANK0  00022
main@aCommand                                   cstackBANK1  000B9
main@beanTemp                                   cstackBANK1  000B4
main@dcFanSpeed                                 cstackBANK1  000B6
main@heaterPower                                cstackBANK1  000B7
main@index                                      cstackBANK1  000B8
main@parameters                                 cstackBANK1  000AF
main@readBuffer                                 cstackBANK1  000A0
main@readByte                                   cstackBANK1  000B5
reset_vec                                       reset_vec    00000
sendChannelsReply@chans                         cstackBANK0  00024
sendString2Serial@str                           cstackBANK0  00021
sendTemperature@temp                            cstackBANK0  00034
sendTemperature@tempStr                         cstackBANK0  00035
setDcFanSpeed@level                             cstackBANK0  00038
setDcFanSpeed@speed                             cstackBANK0  0003A
setDcFanSpeed@tempStr                           cstackBANK0  00034
setHeaterPower@newLevel                         cstackBANK0  0003D
setHeaterPower@newPowerBits                     cstackBANK0  00035
setHeaterPower@power                            cstackBANK0  00038
setHeaterPower@tempStr                          cstackBANK0  00039
setPowerBits@value                              cstackBANK0  00020
start                                           init         00019
start_initialization                            cinit        0001A
startsWith@str1                                 cstackBANK0  00020
startsWith@str2                                 cstackBANK0  00022
string2int@index                                cstackBANK0  00026
string2int@numberStr                            cstackBANK0  00028
string2int@result                               cstackBANK0  00027
wtemp0                                          (abs)        0007E


MODULE INFORMATION

Module		Function		Class		Link	Load	Size
mcc_generated_files/fvr.c
		_FVR_Initialize		CODE           	0626	0000	4

mcc_generated_files/fvr.c estimated size: 4

mcc_generated_files/tmr2.c
		_TMR2_Initialize		CODE           	0545	0000	15

mcc_generated_files/tmr2.c estimated size: 15

mcc_generated_files/interrupt_manager.c
		_INTERRUPT_InterruptManager		CODE           	0004	0000	21

mcc_generated_files/interrupt_manager.c estimated size: 21

mcc_generated_files/tmr0.c
		_TMR0_Initialize		CODE           	057E	0000	12

mcc_generated_files/tmr0.c estimated size: 12

mcc_generated_files/pin_manager.c
		_PIN_MANAGER_Initialize		CODE           	0424	0000	32

mcc_generated_files/pin_manager.c estimated size: 32

mcc_generated_files/adc.c
		_ADC_DefaultInterruptHandler		CODE           	0390	0000	41
		_ADC_Initialize		CODE           	050D	0000	20
		_ADC_SetInterruptHandler		CODE           	0621	0000	5
		_ADC_GetConversionResult		CODE           	060C	0000	6
		_ADC_ISR       		CODE           	058A	0000	12
		_ADC_SelectChannel		CODE           	0554	0000	15
		_setPowerBits  		CODE           	05F9	0000	7

mcc_generated_files/adc.c estimated size: 106

C:\Program Files\Microchip\xc8\v2.36\pic\sources\c99\common\awdiv.c
		___awdiv       		CODE           	00FA	0000	81

C:\Program Files\Microchip\xc8\v2.36\pic\sources\c99\common\awdiv.c estimated size: 81

C:\Program Files\Microchip\xc8\v2.36\pic\sources\c99\common\lbmod.c
		___lbmod       		CODE           	0444	0000	31

C:\Program Files\Microchip\xc8\v2.36\pic\sources\c99\common\lbmod.c estimated size: 31

shared
		_powerBitTable 		STRCODE        	0199	0000	75
		__initialization		CODE           	001A	0000	11
		_pwmLevel      		STRCODE        	0563	0000	14

shared estimated size: 100

mcc_generated_files/eusart1.c
		_EUSART1_SetRxInterruptHandler		CODE           	05CB	0000	8
		_EUSART1_Initialize		CODE           	033B	0000	44
		_EUSART1_DefaultErrorHandler		CODE           	0631	0000	2
		_EUSART1_SetFramingErrorHandler		CODE           	05DB	0000	8
		_EUSART1_Read  		CODE           	03DF	0000	36
		_EUSART1_SetOverrunErrorHandler		CODE           	05D3	0000	8
		_EUSART1_SetErrorHandler		CODE           	05E3	0000	8
		_EUSART1_Write 		CODE           	05AA	0000	9
		_EUSART1_Receive_ISR		CODE           	02DE	0000	49
		_EUSART1_RxDataHandler		CODE           	04F7	0000	22
		_EUSART1_DefaultOverrunErrorHandler		CODE           	062A	0000	4
		_EUSART1_DefaultFramingErrorHandler		CODE           	0633	0000	1

mcc_generated_files/eusart1.c estimated size: 199

mcc_generated_files/mcc.c
		_PMD_Initialize		CODE           	05C3	0000	8
		_OSCILLATOR_Initialize		CODE           	05A0	0000	10
		_SYSTEM_Initialize		CODE           	0596	0000	10

mcc_generated_files/mcc.c estimated size: 28

C:\Program Files\Microchip\xc8\v2.36\pic\sources\c99\common\Umul8.c
		___bmul        		CODE           	0534	0000	17

C:\Program Files\Microchip\xc8\v2.36\pic\sources\c99\common\Umul8.c estimated size: 17

mcc_generated_files/pwm3.c
		_PWM3_Initialize		CODE           	05BB	0000	8
		_PWM3_LoadDutyValue		CODE           	04B1	0000	24

mcc_generated_files/pwm3.c estimated size: 32

main.c
		_getBeanTemperature		CODE           	0367	0000	41
		_getCommandAndParams		CODE           	01E4	0000	72
		_isEqual       		CODE           	030F	0000	44
		_startsWith    		CODE           	03B9	0000	38
		_sendChannelsReply		CODE           	0571	0000	13
		_setDcFanSpeed 		CODE           	026F	0000	61
		_main          		CODE           	0028	0000	114
		_convert2Celsius		CODE           	05B3	0000	8
		_setHeaterPower		CODE           	014B	0000	78
		_string2int    		CODE           	02AC	0000	50
		_sendLf2Serial 		CODE           	062E	0000	3
		_sendTemperature		CODE           	0498	0000	25
		_sendString2Serial		CODE           	0521	0000	19
		_getParams     		CODE           	022C	0000	67
		_int2string    		CODE           	009A	0000	96

main.c estimated size: 729

C:\Program Files\Microchip\xc8\v2.36\pic\sources\c99\common\Umul16.c
		___wmul        		CODE           	0463	0000	27

C:\Program Files\Microchip\xc8\v2.36\pic\sources\c99\common\Umul16.c estimated size: 27

C:\Program Files\Microchip\xc8\v2.36\pic\sources\c99\common\lbdiv.c
		___lbdiv       		CODE           	0403	0000	33

C:\Program Files\Microchip\xc8\v2.36\pic\sources\c99\common\lbdiv.c estimated size: 33

